target datalayout = "e-m:e-p270:32:32-p271:32:32-p272:64:64-i64:64-i128:128-f80:128-n8:16:32:64-S128"
target triple = "x86_64-pc-linux-gnu"

%struct.LWLockHandle = type { ptr, i32 }

@num_held_lwlocks = internal global i32 0, align 4
@held_lwlocks = internal global [200 x %struct.LWLockHandle] zeroinitializer, align 16

; Function Attrs: nounwind uwtable
define dso_local zeroext i1 @LWLockHeldByMeInMode(ptr noundef %0, i32 noundef %1) #0 {
  %3 = alloca i1, align 1
  %4 = alloca ptr, align 8
  %5 = alloca i32, align 4
  %6 = alloca i32, align 4
  %7 = alloca i32, align 4
  store ptr %0, ptr %4, align 8
  store i32 %1, ptr %5, align 4
  call void @llvm.lifetime.start.p0(i64 4, ptr %6) #9
  store i32 0, ptr %6, align 4
  br label %8

8:                                                ; preds = %30, %2
  %9 = load i32, ptr %6, align 4
  %10 = load i32, ptr @num_held_lwlocks, align 4
  %11 = icmp slt i32 %9, %10
  br i1 %11, label %12, label %33

12:                                               ; preds = %8
  %13 = load i32, ptr %6, align 4
  %14 = sext i32 %13 to i64
  %15 = getelementptr inbounds [200 x %struct.LWLockHandle], ptr @held_lwlocks, i64 0, i64 %14
  %16 = getelementptr inbounds nuw %struct.LWLockHandle, ptr %15, i32 0, i32 0
  %17 = load ptr, ptr %16, align 16
  %18 = load ptr, ptr %4, align 8
  %19 = icmp eq ptr %17, %18
  br i1 %19, label %20, label %29

20:                                               ; preds = %12
  %21 = load i32, ptr %6, align 4
  %22 = sext i32 %21 to i64
  %23 = getelementptr inbounds [200 x %struct.LWLockHandle], ptr @held_lwlocks, i64 0, i64 %22
  %24 = getelementptr inbounds nuw %struct.LWLockHandle, ptr %23, i32 0, i32 1
  %25 = load i32, ptr %24, align 8
  %26 = load i32, ptr %5, align 4
  %27 = icmp eq i32 %25, %26
  br i1 %27, label %28, label %29

28:                                               ; preds = %20
  store i1 true, ptr %3, align 1
  store i32 1, ptr %7, align 4
  br label %34

29:                                               ; preds = %20, %12
  br label %30

30:                                               ; preds = %29
  %31 = load i32, ptr %6, align 4
  %32 = add i32 %31, 1
  store i32 %32, ptr %6, align 4
  br label %8, !llvm.loop !35

33:                                               ; preds = %8
  store i1 false, ptr %3, align 1
  store i32 1, ptr %7, align 4
  br label %34

34:                                               ; preds = %33, %28
  call void @llvm.lifetime.end.p0(i64 4, ptr %6) #9
  %35 = load i1, ptr %3, align 1
  ret i1 %35
}