; Function Attrs: nofree norecurse nosync nounwind memory(read, argmem: none, inaccessiblemem: none) uwtable
define dso_local noundef zeroext i1 @LWLockHeldByMeInMode(ptr noundef readnone captures(address) %0, i32 noundef %1) local_unnamed_addr #10 {
  %3 = load i32, ptr @num_held_lwlocks, align 4
  %4 = icmp sgt i32 %3, 0
  br i1 %4, label %.lr.ph.preheader, label %._crit_edge

.lr.ph.preheader:                                 ; preds = %2
  %wide.trip.count = zext nneg i32 %3 to i64
  br label %.lr.ph

.lr.ph:                                           ; preds = %.lr.ph.preheader, %12
  %indvars.iv = phi i64 [ 0, %.lr.ph.preheader ], [ %indvars.iv.next, %12 ]
  %5 = getelementptr inbounds nuw [200 x %struct.LWLockHandle], ptr @held_lwlocks, i64 0, i64 %indvars.iv
  %6 = load ptr, ptr %5, align 16
  %7 = icmp eq ptr %6, %0
  br i1 %7, label %8, label %12

8:                                                ; preds = %.lr.ph
  %9 = getelementptr inbounds nuw i8, ptr %5, i64 8
  %10 = load i32, ptr %9, align 8
  %11 = icmp eq i32 %10, %1
  br i1 %11, label %._crit_edge, label %12

12:                                               ; preds = %.lr.ph, %8
  %indvars.iv.next = add nuw nsw i64 %indvars.iv, 1
  %exitcond.not = icmp eq i64 %indvars.iv.next, %wide.trip.count
  br i1 %exitcond.not, label %._crit_edge, label %.lr.ph, !llvm.loop !36

._crit_edge:                                      ; preds = %8, %12, %2
  %.lcssa = phi i1 [ false, %2 ], [ false, %12 ], [ true, %8 ]
  ret i1 %.lcssa
}